; ModuleID = 'source-C-CXX/16/741.c'
source_filename = "source-C-CXX/16/741.c"
target datalayout = "e-m:e-p270:32:32-p271:32:32-p272:64:64-i64:64-f80:128-n8:16:32:64-S128"
target triple = "x86_64-pc-linux-gnu"

@.str = private unnamed_addr constant [3 x i8] c"%s\00", align 1

; Function Attrs: nofree nounwind sspstrong uwtable
define dso_local i32 @main() local_unnamed_addr #0 {
  %1 = alloca [11 x [101 x i8]], align 16
  %2 = alloca [101 x i8], align 16
  %3 = getelementptr inbounds [11 x [101 x i8]], [11 x [101 x i8]]* %1, i64 0, i64 0, i64 0
  call void @llvm.lifetime.start.p0i8(i64 1111, i8* nonnull %3) #7
  call void @llvm.memset.p0i8.i64(i8* noundef nonnull align 16 dereferenceable(1111) %3, i8 0, i64 1111, i1 false)
  %4 = getelementptr inbounds [101 x i8], [101 x i8]* %2, i64 0, i64 0
  call void @llvm.lifetime.start.p0i8(i64 101, i8* nonnull %4) #7
  br label %5

5:                                                ; preds = %0, %178
  %6 = phi i64 [ 0, %0 ], [ %180, %178 ]
  %7 = getelementptr inbounds [11 x [101 x i8]], [11 x [101 x i8]]* %1, i64 0, i64 %6, i64 0
  %8 = call i32 (i8*, ...) @__isoc99_scanf(i8* getelementptr inbounds ([3 x i8], [3 x i8]* @.str, i64 0, i64 0), i8* nonnull %7)
  %9 = call i8* @strcpy(i8* noundef nonnull %4, i8* noundef nonnull %7) #7
  %10 = call i64 @strlen(i8* noundef nonnull %7) #8
  %11 = trunc i64 %10 to i32
  %12 = icmp sgt i32 %11, 0
  br i1 %12, label %13, label %164

13:                                               ; preds = %5
  %14 = shl i64 %10, 32
  %15 = ashr exact i64 %14, 32
  %16 = and i64 %10, 4294967295
  br label %118

17:                                               ; preds = %141
  br i1 %12, label %18, label %164

18:                                               ; preds = %17
  %19 = and i64 %10, 4294967295
  %20 = icmp ult i64 %19, 16
  br i1 %20, label %116, label %21

21:                                               ; preds = %18
  %22 = and i64 %10, 15
  %23 = sub nsw i64 %19, %22
  br label %24

24:                                               ; preds = %111, %21
  %25 = phi i64 [ 0, %21 ], [ %112, %111 ]
  %26 = getelementptr inbounds [11 x [101 x i8]], [11 x [101 x i8]]* %1, i64 0, i64 %6, i64 %25
  %27 = bitcast i8* %26 to <8 x i8>*
  %28 = load <8 x i8>, <8 x i8>* %27, align 1, !tbaa !5
  %29 = getelementptr inbounds i8, i8* %26, i64 8
  %30 = bitcast i8* %29 to <8 x i8>*
  %31 = load <8 x i8>, <8 x i8>* %30, align 1, !tbaa !5
  %32 = icmp eq <8 x i8> %28, <i8 41, i8 41, i8 41, i8 41, i8 41, i8 41, i8 41, i8 41>
  %33 = icmp eq <8 x i8> %31, <i8 41, i8 41, i8 41, i8 41, i8 41, i8 41, i8 41, i8 41>
  %34 = extractelement <8 x i1> %32, i32 0
  br i1 %34, label %35, label %36

35:                                               ; preds = %24
  store i8 63, i8* %26, align 1, !tbaa !5
  br label %36

36:                                               ; preds = %35, %24
  %37 = extractelement <8 x i1> %32, i32 1
  br i1 %37, label %38, label %41

38:                                               ; preds = %36
  %39 = or i64 %25, 1
  %40 = getelementptr inbounds [11 x [101 x i8]], [11 x [101 x i8]]* %1, i64 0, i64 %6, i64 %39
  store i8 63, i8* %40, align 1, !tbaa !5
  br label %41

41:                                               ; preds = %38, %36
  %42 = extractelement <8 x i1> %32, i32 2
  br i1 %42, label %43, label %46

43:                                               ; preds = %41
  %44 = or i64 %25, 2
  %45 = getelementptr inbounds [11 x [101 x i8]], [11 x [101 x i8]]* %1, i64 0, i64 %6, i64 %44
  store i8 63, i8* %45, align 1, !tbaa !5
  br label %46

46:                                               ; preds = %43, %41
  %47 = extractelement <8 x i1> %32, i32 3
  br i1 %47, label %48, label %51

48:                                               ; preds = %46
  %49 = or i64 %25, 3
  %50 = getelementptr inbounds [11 x [101 x i8]], [11 x [101 x i8]]* %1, i64 0, i64 %6, i64 %49
  store i8 63, i8* %50, align 1, !tbaa !5
  br label %51

51:                                               ; preds = %48, %46
  %52 = extractelement <8 x i1> %32, i32 4
  br i1 %52, label %53, label %56

53:                                               ; preds = %51
  %54 = or i64 %25, 4
  %55 = getelementptr inbounds [11 x [101 x i8]], [11 x [101 x i8]]* %1, i64 0, i64 %6, i64 %54
  store i8 63, i8* %55, align 1, !tbaa !5
  br label %56

56:                                               ; preds = %53, %51
  %57 = extractelement <8 x i1> %32, i32 5
  br i1 %57, label %58, label %61

58:                                               ; preds = %56
  %59 = or i64 %25, 5
  %60 = getelementptr inbounds [11 x [101 x i8]], [11 x [101 x i8]]* %1, i64 0, i64 %6, i64 %59
  store i8 63, i8* %60, align 1, !tbaa !5
  br label %61

61:                                               ; preds = %58, %56
  %62 = extractelement <8 x i1> %32, i32 6
  br i1 %62, label %63, label %66

63:                                               ; preds = %61
  %64 = or i64 %25, 6
  %65 = getelementptr inbounds [11 x [101 x i8]], [11 x [101 x i8]]* %1, i64 0, i64 %6, i64 %64
  store i8 63, i8* %65, align 1, !tbaa !5
  br label %66

66:                                               ; preds = %63, %61
  %67 = extractelement <8 x i1> %32, i32 7
  br i1 %67, label %68, label %71

68:                                               ; preds = %66
  %69 = or i64 %25, 7
  %70 = getelementptr inbounds [11 x [101 x i8]], [11 x [101 x i8]]* %1, i64 0, i64 %6, i64 %69
  store i8 63, i8* %70, align 1, !tbaa !5
  br label %71

71:                                               ; preds = %68, %66
  %72 = extractelement <8 x i1> %33, i32 0
  br i1 %72, label %73, label %76

73:                                               ; preds = %71
  %74 = or i64 %25, 8
  %75 = getelementptr inbounds [11 x [101 x i8]], [11 x [101 x i8]]* %1, i64 0, i64 %6, i64 %74
  store i8 63, i8* %75, align 1, !tbaa !5
  br label %76

76:                                               ; preds = %73, %71
  %77 = extractelement <8 x i1> %33, i32 1
  br i1 %77, label %78, label %81

78:                                               ; preds = %76
  %79 = or i64 %25, 9
  %80 = getelementptr inbounds [11 x [101 x i8]], [11 x [101 x i8]]* %1, i64 0, i64 %6, i64 %79
  store i8 63, i8* %80, align 1, !tbaa !5
  br label %81

81:                                               ; preds = %78, %76
  %82 = extractelement <8 x i1> %33, i32 2
  br i1 %82, label %83, label %86

83:                                               ; preds = %81
  %84 = or i64 %25, 10
  %85 = getelementptr inbounds [11 x [101 x i8]], [11 x [101 x i8]]* %1, i64 0, i64 %6, i64 %84
  store i8 63, i8* %85, align 1, !tbaa !5
  br label %86

86:                                               ; preds = %83, %81
  %87 = extractelement <8 x i1> %33, i32 3
  br i1 %87, label %88, label %91

88:                                               ; preds = %86
  %89 = or i64 %25, 11
  %90 = getelementptr inbounds [11 x [101 x i8]], [11 x [101 x i8]]* %1, i64 0, i64 %6, i64 %89
  store i8 63, i8* %90, align 1, !tbaa !5
  br label %91

91:                                               ; preds = %88, %86
  %92 = extractelement <8 x i1> %33, i32 4
  br i1 %92, label %93, label %96

93:                                               ; preds = %91
  %94 = or i64 %25, 12
  %95 = getelementptr inbounds [11 x [101 x i8]], [11 x [101 x i8]]* %1, i64 0, i64 %6, i64 %94
  store i8 63, i8* %95, align 1, !tbaa !5
  br label %96

96:                                               ; preds = %93, %91
  %97 = extractelement <8 x i1> %33, i32 5
  br i1 %97, label %98, label %101

98:                                               ; preds = %96
  %99 = or i64 %25, 13
  %100 = getelementptr inbounds [11 x [101 x i8]], [11 x [101 x i8]]* %1, i64 0, i64 %6, i64 %99
  store i8 63, i8* %100, align 1, !tbaa !5
  br label %101

101:                                              ; preds = %98, %96
  %102 = extractelement <8 x i1> %33, i32 6
  br i1 %102, label %103, label %106

103:                                              ; preds = %101
  %104 = or i64 %25, 14
  %105 = getelementptr inbounds [11 x [101 x i8]], [11 x [101 x i8]]* %1, i64 0, i64 %6, i64 %104
  store i8 63, i8* %105, align 1, !tbaa !5
  br label %106

106:                                              ; preds = %103, %101
  %107 = extractelement <8 x i1> %33, i32 7
  br i1 %107, label %108, label %111

108:                                              ; preds = %106
  %109 = or i64 %25, 15
  %110 = getelementptr inbounds [11 x [101 x i8]], [11 x [101 x i8]]* %1, i64 0, i64 %6, i64 %109
  store i8 63, i8* %110, align 1, !tbaa !5
  br label %111

111:                                              ; preds = %108, %106
  %112 = add nuw i64 %25, 16
  %113 = icmp eq i64 %112, %23
  br i1 %113, label %114, label %24, !llvm.loop !8

114:                                              ; preds = %111
  %115 = icmp eq i64 %22, 0
  br i1 %115, label %144, label %116

116:                                              ; preds = %18, %114
  %117 = phi i64 [ 0, %18 ], [ %23, %114 ]
  br label %147

118:                                              ; preds = %13, %141
  %119 = phi i64 [ %16, %13 ], [ %143, %141 ]
  %120 = phi i64 [ %15, %13 ], [ %122, %141 ]
  %121 = phi i32 [ %11, %13 ], [ %123, %141 ]
  %122 = add nsw i64 %120, -1
  %123 = add nsw i32 %121, -1
  %124 = zext i32 %123 to i64
  %125 = getelementptr inbounds [11 x [101 x i8]], [11 x [101 x i8]]* %1, i64 0, i64 %6, i64 %124
  %126 = load i8, i8* %125, align 1, !tbaa !5
  switch i8 %126, label %139 [
    i8 40, label %127
    i8 41, label %141
  ]

127:                                              ; preds = %118
  %128 = icmp sgt i64 %119, %15
  br i1 %128, label %139, label %132

129:                                              ; preds = %132
  %130 = trunc i64 %137 to i32
  %131 = icmp eq i32 %130, %11
  br i1 %131, label %139, label %132, !llvm.loop !11

132:                                              ; preds = %127, %129
  %133 = phi i64 [ %137, %129 ], [ %122, %127 ]
  %134 = getelementptr inbounds [11 x [101 x i8]], [11 x [101 x i8]]* %1, i64 0, i64 %6, i64 %133
  %135 = load i8, i8* %134, align 1, !tbaa !5
  %136 = icmp eq i8 %135, 41
  %137 = add nsw i64 %133, 1
  br i1 %136, label %138, label %129

138:                                              ; preds = %132
  store i8 32, i8* %134, align 1, !tbaa !5
  br label %139

139:                                              ; preds = %129, %118, %127, %138
  %140 = phi i8 [ 32, %138 ], [ 36, %127 ], [ 32, %118 ], [ 36, %129 ]
  store i8 %140, i8* %125, align 1, !tbaa !5
  br label %141

141:                                              ; preds = %139, %118
  %142 = icmp sgt i64 %119, 1
  %143 = add nsw i64 %119, -1
  br i1 %142, label %118, label %17, !llvm.loop !12

144:                                              ; preds = %153, %114
  br i1 %12, label %145, label %164

145:                                              ; preds = %144
  %146 = and i64 %10, 4294967295
  br label %156

147:                                              ; preds = %116, %153
  %148 = phi i64 [ %154, %153 ], [ %117, %116 ]
  %149 = getelementptr inbounds [11 x [101 x i8]], [11 x [101 x i8]]* %1, i64 0, i64 %6, i64 %148
  %150 = load i8, i8* %149, align 1, !tbaa !5
  %151 = icmp eq i8 %150, 41
  br i1 %151, label %152, label %153

152:                                              ; preds = %147
  store i8 63, i8* %149, align 1, !tbaa !5
  br label %153

153:                                              ; preds = %147, %152
  %154 = add nuw nsw i64 %148, 1
  %155 = icmp eq i64 %154, %19
  br i1 %155, label %144, label %147, !llvm.loop !13

156:                                              ; preds = %145, %156
  %157 = phi i64 [ 0, %145 ], [ %162, %156 ]
  %158 = getelementptr inbounds [101 x i8], [101 x i8]* %2, i64 0, i64 %157
  %159 = load i8, i8* %158, align 1, !tbaa !5
  %160 = sext i8 %159 to i32
  %161 = call i32 @putchar(i32 %160)
  %162 = add nuw nsw i64 %157, 1
  %163 = icmp eq i64 %162, %146
  br i1 %163, label %166, label %156, !llvm.loop !15

164:                                              ; preds = %144, %17, %5
  %165 = call i32 @putchar(i32 10)
  br label %178

166:                                              ; preds = %156
  %167 = call i32 @putchar(i32 10)
  br i1 %12, label %168, label %178

168:                                              ; preds = %166
  %169 = and i64 %10, 4294967295
  br label %170

170:                                              ; preds = %168, %170
  %171 = phi i64 [ 0, %168 ], [ %176, %170 ]
  %172 = getelementptr inbounds [11 x [101 x i8]], [11 x [101 x i8]]* %1, i64 0, i64 %6, i64 %171
  %173 = load i8, i8* %172, align 1, !tbaa !5
  %174 = sext i8 %173 to i32
  %175 = call i32 @putchar(i32 %174)
  %176 = add nuw nsw i64 %171, 1
  %177 = icmp eq i64 %176, %169
  br i1 %177, label %178, label %170, !llvm.loop !16

178:                                              ; preds = %170, %164, %166
  %179 = call i32 @putchar(i32 10)
  %180 = add nuw nsw i64 %6, 1
  %181 = icmp eq i64 %180, 11
  br i1 %181, label %182, label %5, !llvm.loop !17

182:                                              ; preds = %178
  call void @llvm.lifetime.end.p0i8(i64 101, i8* nonnull %4) #7
  call void @llvm.lifetime.end.p0i8(i64 1111, i8* nonnull %3) #7
  ret i32 0
}

; Function Attrs: argmemonly mustprogress nofree nosync nounwind willreturn
declare void @llvm.lifetime.start.p0i8(i64 immarg, i8* nocapture) #1

; Function Attrs: argmemonly mustprogress nofree nounwind willreturn writeonly
declare void @llvm.memset.p0i8.i64(i8* nocapture writeonly, i8, i64, i1 immarg) #2

; Function Attrs: nofree nounwind
declare noundef i32 @__isoc99_scanf(i8* nocapture noundef readonly, ...) local_unnamed_addr #3

; Function Attrs: argmemonly mustprogress nofree nounwind willreturn
declare i8* @strcpy(i8* noalias returned writeonly, i8* noalias nocapture readonly) local_unnamed_addr #4

; Function Attrs: argmemonly mustprogress nofree nounwind readonly willreturn
declare i64 @strlen(i8* nocapture) local_unnamed_addr #5

; Function Attrs: argmemonly mustprogress nofree nosync nounwind willreturn
declare void @llvm.lifetime.end.p0i8(i64 immarg, i8* nocapture) #1

; Function Attrs: nofree nounwind
declare noundef i32 @putchar(i32 noundef) local_unnamed_addr #6


!llvm.module.flags = !{!0, !1, !2, !3}
!llvm.ident = !{!4}

!0 = !{i32 1, !"wchar_size", i32 4}
!1 = !{i32 7, !"PIC Level", i32 2}
!2 = !{i32 7, !"PIE Level", i32 2}
!3 = !{i32 7, !"uwtable", i32 1}
!4 = !{!"clang version 13.0.0"}
!5 = !{!6, !6, i64 0}
!6 = !{!"omnipotent char", !7, i64 0}
!7 = !{!"Simple C/C++ TBAA"}
!8 = distinct !{!8, !9, !10}
!9 = !{!"llvm.loop.mustprogress"}
!10 = !{!"llvm.loop.isvectorized", i32 1}
!11 = distinct !{!11, !9}
!12 = distinct !{!12, !9}
!13 = distinct !{!13, !9, !14, !10}
!14 = !{!"llvm.loop.unroll.runtime.disable"}
!15 = distinct !{!15, !9}
!16 = distinct !{!16, !9}
!17 = distinct !{!17, !9}
